; Function Attrs: nounwind uwtable
define internal fastcc range(i32 0, 2) i32 @w_reserve(ptr noundef nonnull %0, i64 noundef %1) unnamed_addr #0 {
  %3 = getelementptr inbounds nuw i8, ptr %0, i64 24
  %4 = load ptr, ptr %3, align 8, !tbaa !15
  %5 = icmp eq ptr %4, null
  br i1 %5, label %45, label %6

6:                                                ; preds = %2
  %7 = load ptr, ptr %0, align 8, !tbaa !4
  %.not = icmp eq ptr %7, null
  %8 = getelementptr inbounds nuw i8, ptr %0, i64 40
  %9 = load ptr, ptr %8, align 8, !tbaa !14
  %10 = ptrtoint ptr %4 to i64
  %11 = ptrtoint ptr %9 to i64
  %12 = sub i64 %10, %11
  br i1 %.not, label %23, label %13

13:                                               ; preds = %6
  %14 = tail call i64 @fwrite(ptr noundef %9, i64 noundef 1, i64 noundef %12, ptr noundef nonnull %7)
  %15 = load ptr, ptr %8, align 8, !tbaa !14
  store ptr %15, ptr %3, align 8, !tbaa !15
  %16 = getelementptr inbounds nuw i8, ptr %0, i64 32
  %17 = load ptr, ptr %16, align 8, !tbaa !16
  %18 = ptrtoint ptr %17 to i64
  %19 = ptrtoint ptr %15 to i64
  %20 = sub i64 %18, %19
  %21 = icmp sle i64 %1, %20
  %22 = zext i1 %21 to i32
  br label %45

23:                                               ; preds = %6
  %24 = getelementptr inbounds nuw i8, ptr %0, i64 16
  %25 = load ptr, ptr %24, align 8, !tbaa !18
  %26 = getelementptr i8, ptr %25, i64 16
  %.val = load i64, ptr %26, align 8, !tbaa !19
  %27 = icmp sgt i64 %.val, 16777216
  %28 = lshr i64 %.val, 3
  %29 = add nsw i64 %.val, 1024
  %.0 = select i1 %27, i64 %28, i64 %29
  %30 = tail call i64 @llvm.smax.i64(i64 %.0, i64 %1)
  %31 = sub i64 9223372036854775807, %.val
  %32 = icmp sgt i64 %30, %31
  br i1 %32, label %33, label %35

33:                                               ; preds = %23
  %34 = getelementptr inbounds nuw i8, ptr %0, i64 8
  store i32 3, ptr %34, align 8, !tbaa !24
  br label %45

35:                                               ; preds = %23
  %36 = add i64 %30, %.val
  %37 = tail call i32 @_PyBytes_Resize(ptr noundef nonnull %24, i64 noundef %36) #11
  %.not38 = icmp eq i32 %37, 0
  br i1 %.not38, label %39, label %38

38:                                               ; preds = %35
  tail call void @llvm.memset.p0.i64(ptr noundef nonnull align 8 dereferenceable(24) %3, i8 0, i64 24, i1 false)
  br label %45

39:                                               ; preds = %35
  %40 = load ptr, ptr %24, align 8, !tbaa !18
  %41 = getelementptr inbounds nuw i8, ptr %40, i64 32
  store ptr %41, ptr %8, align 8, !tbaa !14
  %42 = getelementptr i8, ptr %41, i64 %12
  store ptr %42, ptr %3, align 8, !tbaa !15
  %43 = getelementptr i8, ptr %41, i64 %36
  %44 = getelementptr inbounds nuw i8, ptr %0, i64 32
  store ptr %43, ptr %44, align 8, !tbaa !16
  br label %45

45:                                               ; preds = %2, %39, %38, %33, %13
  %.034 = phi i32 [ %22, %13 ], [ 0, %33 ], [ 0, %38 ], [ 1, %39 ], [ 0, %2 ]
  ret i32 %.034
}